(dp0
S'-'
p1
F0.0029598934438360217
sS'1'
p2
F0.007399733609590054
sS'0'
p3
F0.003107888116027823
sS'3'
p4
F0.003699866804795027
sS'2'
p5
F0.003995856149178629
sS'5'
p6
F0.0028118987716442205
sS'4'
p7
F0.0019239307384934141
sS'7'
p8
F0.0019239307384934141
sS'6'
p9
F0.0029598934438360217
sS'9'
p10
F0.002071925410685215
sS'8'
p11
F0.0022199200828770162
sS'a'
p12
F0.09072073405357407
sS'c'
p13
F0.03818262542548468
sS'b'
p14
F0.026639040994524195
sS'e'
p15
F0.09353263282521829
sS'd'
p16
F0.029598934438360217
sS'g'
p17
F0.027379014355483202
sS'f'
p18
F0.014059493858221103
sS'i'
p19
F0.07666124019535296
sS'h'
p20
F0.02190321148438656
sS'k'
p21
F0.021311232795619358
sS'j'
p22
F0.005031818854521237
sS'm'
p23
F0.03255882788219624
sS'l'
p24
F0.0404025455083617
sS'o'
p25
F0.0819890483942578
sS'n'
p26
F0.06289773568151547
sS'q'
p27
F0.0035518721326032263
sS'p'
p28
F0.03152286517685363
sS's'
p29
F0.05387006067781559
sS'r'
p30
F0.05549800207192541
sS'u'
p31
F0.03226283853781264
sS't'
p32
F0.057273938138227024
sS'w'
p33
F0.017167381974248927
sS'v'
p34
F0.013023531152878496
sS'y'
p35
F0.02160722214000296
sS'x'
p36
F0.007251738937398253
sS'z'
p37
F0.009027675003699866
s.(dp0
S'tz'
p1
F0.0003453634950785702
sS'tx'
p2
F0.0
sS'ty'
p3
F0.0024175444655499916
sS'tv'
p4
F0.001554135727853566
sS'tw'
p5
F0.0010360904852357107
sS'tt'
p6
F0.001726817475392851
sS'9i'
p7
F0.0
sS'9h'
p8
F0.0
sS'9k'
p9
F0.0001726817475392851
sS'9j'
p10
F0.0
sS'9m'
p11
F0.0
sS'9l'
p12
F0.0001726817475392851
sS'9o'
p13
F0.0
sS'9n'
p14
F0.0
sS'9a'
p15
F0.0
sS'tr'
p16
F0.003108271455707132
sS'9c'
p17
F0.0
sS'9b'
p18
F0.0
sS'9e'
p19
F0.0
sS'9d'
p20
F0.0
sS'9g'
p21
F0.0
sS'9f'
p22
F0.0
sS'9y'
p23
F0.0
sS'9x'
p24
F0.0
sS'9z'
p25
F0.0
sS'tp'
p26
F0.0008634087376964255
sS'9q'
p27
F0.0
sS'9p'
p28
F0.0
sS'9s'
p29
F0.0
sS'9r'
p30
F0.0
sS'9u'
p31
F0.0
sS'9t'
p32
F0.0
sS'9w'
p33
F0.0001726817475392851
sS'9v'
p34
F0.0
sS'tn'
p35
F0.0005180452426178553
sS'to'
p36
F0.006561906406492834
sS'm-'
p37
F0.0001726817475392851
sS'tl'
p38
F0.0005180452426178553
sS'm5'
p39
F0.0001726817475392851
sS'm4'
p40
F0.0
sS'm7'
p41
F0.0001726817475392851
sS'm6'
p42
F0.0
sS'm1'
p43
F0.0003453634950785702
sS'm0'
p44
F0.0
sS'm3'
p45
F0.0
sS'm2'
p46
F0.0
sS'tj'
p47
F0.0003453634950785702
sS'm9'
p48
F0.0
sS'm8'
p49
F0.0
sS'tk'
p50
F0.0001726817475392851
sS'9-'
p51
F0.0
sS'th'
p52
F0.003108271455707132
sS'ti'
p53
F0.007252633396649975
sS'99'
p54
F0.0003453634950785702
sS'98'
p55
F0.0001726817475392851
sS'91'
p56
F0.0
sS'90'
p57
F0.0001726817475392851
sS'93'
p58
F0.0
sS'92'
p59
F0.0001726817475392851
sS'95'
p60
F0.0001726817475392851
sS'94'
p61
F0.0
sS'97'
p62
F0.0
sS'96'
p63
F0.0001726817475392851
sS'me'
p64
F0.01018822310481782
sS'md'
p65
F0.0006907269901571404
sS'mg'
p66
F0.0003453634950785702
sS'mf'
p67
F0.0
sS'ma'
p68
F0.0074253151441892595
sS'mc'
p69
F0.0006907269901571404
sS'mb'
p70
F0.0013814539803142809
sS'mm'
p71
F0.0005180452426178553
sS'ml'
p72
F0.0
sS'mo'
p73
F0.003453634950785702
sS'mn'
p74
F0.0
sS'mi'
p75
F0.0025902262130892764
sS'mh'
p76
F0.0
sS'mk'
p77
F0.0
sS'mj'
p78
F0.0
sS'mu'
p79
F0.0013814539803142809
sS'mt'
p80
F0.0005180452426178553
sS'mw'
p81
F0.0
sS'mv'
p82
F0.0005180452426178553
sS'mq'
p83
F0.0
sS'mp'
p84
F0.0013814539803142809
sS'ms'
p85
F0.0010360904852357107
sS'mr'
p86
F0.0
sS'ta'
p87
F0.005007770678639268
sS'my'
p88
F0.001726817475392851
sS'mx'
p89
F0.0001726817475392851
sS'mz'
p90
F0.0003453634950785702
sS'rt'
p91
F0.003108271455707132
sS'ru'
p92
F0.0012087722327749958
sS'rv'
p93
F0.0006907269901571404
sS'rw'
p94
F0.0
sS'rp'
p95
F0.0003453634950785702
sS'rq'
p96
F0.0
sS'rr'
p97
F0.001899499222932136
sS'rs'
p98
F0.0025902262130892764
sS'rx'
p99
F0.0
sS'ry'
p100
F0.001554135727853566
sS'rz'
p101
F0.0
sS'rd'
p102
F0.0010360904852357107
sS're'
p103
F0.012433085822828528
sS'rf'
p104
F0.0001726817475392851
sS'rg'
p105
F0.0012087722327749958
sS'ra'
p106
F0.007252633396649975
sS'rb'
p107
F0.001554135727853566
sS'rc'
p108
F0.0027629079606285617
sS'rl'
p109
F0.0010360904852357107
sS'rm'
p110
F0.0008634087376964255
sS'rn'
p111
F0.0008634087376964255
sS'ro'
p112
F0.005180452426178553
sS'rh'
p113
F0.0
sS'ri'
p114
F0.006734588154032119
sS'rj'
p115
F0.0
sS'rk'
p116
F0.0022448627180107063
sS'r4'
p117
F0.0
sS'r5'
p118
F0.0
sS'r6'
p119
F0.0
sS'r7'
p120
F0.0
sS'r0'
p121
F0.0
sS'r1'
p122
F0.0003453634950785702
sS'r2'
p123
F0.0
sS'r3'
p124
F0.0
sS'r8'
p125
F0.0
sS'r9'
p126
F0.0
sS'r-'
p127
F0.0003453634950785702
sS'd-'
p128
F0.0
sS'd8'
p129
F0.0
sS'd9'
p130
F0.0
sS'd6'
p131
F0.0001726817475392851
sS'd7'
p132
F0.0
sS'd4'
p133
F0.0
sS'd5'
p134
F0.0
sS'd2'
p135
F0.0
sS'd3'
p136
F0.0
sS'd0'
p137
F0.0
sS'd1'
p138
F0.0001726817475392851
sS'dn'
p139
F0.0012087722327749958
sS'do'
p140
F0.006561906406492834
sS'dl'
p141
F0.0001726817475392851
sS'dm'
p142
F0.0001726817475392851
sS'dj'
p143
F0.0
sS'dk'
p144
F0.0
sS'dh'
p145
F0.0003453634950785702
sS'di'
p146
F0.005007770678639268
sS'df'
p147
F0.0001726817475392851
sS'dg'
p148
F0.0001726817475392851
sS'dd'
p149
F0.0013814539803142809
sS'de'
p150
F0.004835088931099983
sS'db'
p151
F0.0001726817475392851
sS'dc'
p152
F0.0003453634950785702
sS'da'
p153
F0.0027629079606285617
sS'dz'
p154
F0.0
sS'dx'
p155
F0.0
sS'dy'
p156
F0.0010360904852357107
sS'dv'
p157
F0.0001726817475392851
sS'dw'
p158
F0.0
sS'dt'
p159
F0.0006907269901571404
sS'du'
p160
F0.0012087722327749958
sS'dr'
p161
F0.0006907269901571404
sS'ds'
p162
F0.0013814539803142809
sS'dp'
p163
F0.0003453634950785702
sS'dq'
p164
F0.0
sS'w-'
p165
F0.0
sS'w7'
p166
F0.0
sS'w6'
p167
F0.0
sS'w5'
p168
F0.0
sS'w4'
p169
F0.0
sS'w3'
p170
F0.0
sS'w2'
p171
F0.0
sS'w1'
p172
F0.0
sS'w0'
p173
F0.0
sS'w9'
p174
F0.0
sS'w8'
p175
F0.0
sS'02'
p176
F0.0
sS'03'
p177
F0.0
sS'00'
p178
F0.0008634087376964255
sS'01'
p179
F0.0008634087376964255
sS'06'
p180
F0.0
sS'07'
p181
F0.0
sS'04'
p182
F0.0
sS'05'
p183
F0.0001726817475392851
sS'08'
p184
F0.0001726817475392851
sS'09'
p185
F0.0
sS'0-'
p186
F0.0
sS'wg'
p187
F0.0
sS'wf'
p188
F0.0
sS'we'
p189
F0.005007770678639268
sS'wd'
p190
F0.0001726817475392851
sS'wc'
p191
F0.0
sS'wb'
p192
F0.0
sS'wa'
p193
F0.0024175444655499916
sS'wo'
p194
F0.0022448627180107063
sS'wn'
p195
F0.0010360904852357107
sS'wm'
p196
F0.0
sS'wl'
p197
F0.0001726817475392851
sS'wk'
p198
F0.0
sS'wj'
p199
F0.0
sS'wi'
p200
F0.003453634950785702
sS'wh'
p201
F0.0003453634950785702
sS'ww'
p202
F0.0
sS'wv'
p203
F0.0
sS'wu'
p204
F0.0003453634950785702
sS'wt'
p205
F0.0
sS'ws'
p206
F0.003108271455707132
sS'wr'
p207
F0.0001726817475392851
sS'wq'
p208
F0.0
sS'wp'
p209
F0.0001726817475392851
sS'wz'
p210
F0.0
sS'wy'
p211
F0.0001726817475392851
sS'wx'
p212
F0.0
sS'0r'
p213
F0.0
sS'0s'
p214
F0.0
sS'0p'
p215
F0.0
sS'0q'
p216
F0.0
sS'0v'
p217
F0.0
sS'0w'
p218
F0.0
sS'0t'
p219
F0.0
sS'0u'
p220
F0.0
sS'0z'
p221
F0.0
sS'0x'
p222
F0.0
sS'0y'
p223
F0.0
sS'0b'
p224
F0.0001726817475392851
sS'0c'
p225
F0.0
sS'0a'
p226
F0.0001726817475392851
sS'0f'
p227
F0.0
sS'0g'
p228
F0.0
sS'0d'
p229
F0.0001726817475392851
sS'0e'
p230
F0.0
sS'0j'
p231
F0.0
sS'0k'
p232
F0.0
sS'0h'
p233
F0.0
sS'0i'
p234
F0.0
sS'0n'
p235
F0.0
sS'0o'
p236
F0.0
sS'0l'
p237
F0.0
sS'0m'
p238
F0.0
sS'iy'
p239
F0.0008634087376964255
sS'ix'
p240
F0.0022448627180107063
sS'iz'
p241
F0.0012087722327749958
sS'iq'
p242
F0.0001726817475392851
sS'ip'
p243
F0.0025902262130892764
sS'is'
p244
F0.004144361940942843
sS'ir'
p245
F0.003280953203246417
sS'iu'
p246
F0.0006907269901571404
sS'it'
p247
F0.005353134173717839
sS'iw'
p248
F0.0003453634950785702
sS'iv'
p249
F0.002935589708167847
sS'ii'
p250
F0.0001726817475392851
sS'ih'
p251
F0.0003453634950785702
sS'ik'
p252
F0.002935589708167847
sS'ij'
p253
F0.0005180452426178553
sS'im'
p254
F0.003798998445864272
sS'il'
p255
F0.005871179416335694
sS'io'
p256
F0.003453634950785702
sS'in'
p257
F0.01726817475392851
sS'ia'
p258
F0.006043861163874979
sS'ic'
p259
F0.0074253151441892595
sS'ib'
p260
F0.0022448627180107063
sS'ie'
p261
F0.0027629079606285617
sS'id'
p262
F0.0036263166983249873
sS'ig'
p263
F0.001726817475392851
sS'if'
p264
F0.0008634087376964255
sS'i9'
p265
F0.0
sS'i8'
p266
F0.0
sS'i1'
p267
F0.0
sS'i0'
p268
F0.0
sS'i3'
p269
F0.0
sS'i2'
p270
F0.0
sS'i5'
p271
F0.0001726817475392851
sS'i4'
p272
F0.0
sS'i7'
p273
F0.0
sS'i6'
p274
F0.0
sS'i-'
p275
F0.0
sS't-'
p276
F0.0008634087376964255
sS'5y'
p277
F0.0
sS'5x'
p278
F0.0
sS'5z'
p279
F0.0001726817475392851
sS'5u'
p280
F0.0
sS'5t'
p281
F0.0
sS'5w'
p282
F0.0
sS'5v'
p283
F0.0
sS'5q'
p284
F0.0
sS'5p'
p285
F0.0
sS'5s'
p286
F0.0
sS'5r'
p287
F0.0
sS'5m'
p288
F0.0
sS'5l'
p289
F0.0
sS'5o'
p290
F0.0
sS'5n'
p291
F0.0
sS'5i'
p292
F0.0
sS'5h'
p293
F0.0
sS'5k'
p294
F0.0
sS'5j'
p295
F0.0
sS'5e'
p296
F0.0
sS'5d'
p297
F0.0003453634950785702
sS'5g'
p298
F0.0
sS'5f'
p299
F0.0
sS'5a'
p300
F0.0
sS'5c'
p301
F0.0
sS'5b'
p302
F0.0
sS'59'
p303
F0.0001726817475392851
sS'58'
p304
F0.0
sS'55'
p305
F0.0003453634950785702
sS'54'
p306
F0.0
sS'57'
p307
F0.0
sS'56'
p308
F0.0001726817475392851
sS'51'
p309
F0.0006907269901571404
sS'50'
p310
F0.0
sS'53'
p311
F0.0
sS'52'
p312
F0.0003453634950785702
sS'5-'
p313
F0.0
sS'nh'
p314
F0.0005180452426178553
sS'ni'
p315
F0.005180452426178553
sS'nj'
p316
F0.0001726817475392851
sS'nk'
p317
F0.0020721809704714214
sS'nl'
p318
F0.0020721809704714214
sS'nm'
p319
F0.0001726817475392851
sS'nn'
p320
F0.0006907269901571404
sS'no'
p321
F0.0027629079606285617
sS'na'
p322
F0.006561906406492834
sS'nb'
p323
F0.0008634087376964255
sS'nc'
p324
F0.0022448627180107063
sS'nd'
p325
F0.004144361940942843
sS'ne'
p326
F0.010015541357278536
sS'nf'
p327
F0.0010360904852357107
sS'ng'
p328
F0.007597996891728544
sS'nx'
p329
F0.0
sS'ny'
p330
F0.0008634087376964255
sS'nz'
p331
F0.0
sS'np'
p332
F0.0012087722327749958
sS'nq'
p333
F0.0001726817475392851
sS'nr'
p334
F0.0001726817475392851
sS'ns'
p335
F0.0024175444655499916
sS'nt'
p336
F0.007252633396649975
sS'nu'
p337
F0.0006907269901571404
sS'nv'
p338
F0.0
sS'nw'
p339
F0.0001726817475392851
sS'n-'
p340
F0.0001726817475392851
sS'n8'
p341
F0.0
sS'n9'
p342
F0.0
sS'n0'
p343
F0.0001726817475392851
sS'n1'
p344
F0.0
sS'n2'
p345
F0.0
sS'n3'
p346
F0.0001726817475392851
sS'n4'
p347
F0.0
sS'n5'
p348
F0.0001726817475392851
sS'n6'
p349
F0.0
sS'n7'
p350
F0.0
sS's9'
p351
F0.0
sS's8'
p352
F0.0
sS's3'
p353
F0.0
sS's2'
p354
F0.0
sS's1'
p355
F0.0
sS's0'
p356
F0.0
sS's7'
p357
F0.0
sS's6'
p358
F0.0
sS's5'
p359
F0.0001726817475392851
sS's4'
p360
F0.0
sS's-'
p361
F0.0001726817475392851
sS'sz'
p362
F0.0003453634950785702
sS'sy'
p363
F0.0008634087376964255
sS'sx'
p364
F0.0
sS'ss'
p365
F0.0025902262130892764
sS'sr'
p366
F0.0001726817475392851
sS'sq'
p367
F0.0003453634950785702
sS'sp'
p368
F0.0036263166983249873
sS'sw'
p369
F0.0005180452426178553
sS'sv'
p370
F0.0
sS'su'
p371
F0.001726817475392851
sS'st'
p372
F0.00777067863926783
sS'sk'
p373
F0.0025902262130892764
sS'sj'
p374
F0.0006907269901571404
sS'si'
p375
F0.001726817475392851
sS'sh'
p376
F0.004144361940942843
sS'so'
p377
F0.004835088931099983
sS'sn'
p378
F0.0010360904852357107
sS'sm'
p379
F0.0008634087376964255
sS'sl'
p380
F0.0010360904852357107
sS'sc'
p381
F0.0020721809704714214
sS'sb'
p382
F0.0006907269901571404
sS'sa'
p383
F0.003280953203246417
sS'sg'
p384
F0.0005180452426178553
sS'sf'
p385
F0.0003453634950785702
sS'se'
p386
F0.003280953203246417
sS'sd'
p387
F0.0003453634950785702
sS'em'
p388
F0.0013814539803142809
sS'el'
p389
F0.004317043688482128
sS'eo'
p390
F0.003108271455707132
sS'en'
p391
F0.00777067863926783
sS'ei'
p392
F0.0013814539803142809
sS'eh'
p393
F0.0006907269901571404
sS'ek'
p394
F0.0008634087376964255
sS'ej'
p395
F0.0001726817475392851
sS'ee'
p396
F0.004317043688482128
sS'ed'
p397
F0.005180452426178553
sS'eg'
p398
F0.0025902262130892764
sS'ef'
p399
F0.0013814539803142809
sS'ea'
p400
F0.005525815921257123
sS'ec'
p401
F0.001726817475392851
sS'eb'
p402
F0.004662407183560698
sS'ey'
p403
F0.0013814539803142809
sS'ex'
p404
F0.0024175444655499916
sS'ez'
p405
F0.0008634087376964255
sS'eu'
p406
F0.0006907269901571404
sS'et'
p407
F0.00777067863926783
sS'ew'
p408
F0.002935589708167847
sS'ev'
p409
F0.0008634087376964255
sS'eq'
p410
F0.0
sS'ep'
p411
F0.001899499222932136
sS'es'
p412
F0.011051631842514247
sS'er'
p413
F0.015195993783457089
sS'e-'
p414
F0.0003453634950785702
sS'e9'
p415
F0.0001726817475392851
sS'e8'
p416
F0.0
sS'e5'
p417
F0.0
sS'e4'
p418
F0.0
sS'e7'
p419
F0.0001726817475392851
sS'e6'
p420
F0.0
sS'e1'
p421
F0.0003453634950785702
sS'e0'
p422
F0.0
sS'e3'
p423
F0.0
sS'e2'
p424
F0.0003453634950785702
sS'xj'
p425
F0.0
sS'xk'
p426
F0.0
sS'xh'
p427
F0.0
sS'xi'
p428
F0.001726817475392851
sS'xn'
p429
F0.0003453634950785702
sS'xo'
p430
F0.0001726817475392851
sS'xl'
p431
F0.0
sS'xm'
p432
F0.0003453634950785702
sS'xb'
p433
F0.0003453634950785702
sS'xc'
p434
F0.0003453634950785702
sS'xa'
p435
F0.0006907269901571404
sS'xf'
p436
F0.0
sS'xg'
p437
F0.0
sS'xd'
p438
F0.0
sS'xe'
p439
F0.0001726817475392851
sS'xz'
p440
F0.0001726817475392851
sS'xx'
p441
F0.0
sS'xy'
p442
F0.0001726817475392851
sS'xr'
p443
F0.0001726817475392851
sS'xs'
p444
F0.0001726817475392851
sS'xp'
p445
F0.0005180452426178553
sS'xq'
p446
F0.0001726817475392851
sS'xv'
p447
F0.0
sS'xw'
p448
F0.0
sS'xt'
p449
F0.0003453634950785702
sS'xu'
p450
F0.0006907269901571404
sS'1q'
p451
F0.0
sS'1p'
p452
F0.0
sS'1s'
p453
F0.0003453634950785702
sS'1r'
p454
F0.0
sS'1u'
p455
F0.0
sS'1t'
p456
F0.0001726817475392851
sS'1w'
p457
F0.0001726817475392851
sS'1v'
p458
F0.0
sS'1y'
p459
F0.0
sS'1x'
p460
F0.0
sS'1z'
p461
F0.0
sS'1a'
p462
F0.0
sS'1c'
p463
F0.0001726817475392851
sS'1b'
p464
F0.0
sS'1e'
p465
F0.0
sS'1d'
p466
F0.0
sS'1g'
p467
F0.0001726817475392851
sS'1f'
p468
F0.0
sS'1i'
p469
F0.0
sS'1h'
p470
F0.0
sS'1k'
p471
F0.0
sS'1j'
p472
F0.0001726817475392851
sS'1m'
p473
F0.0
sS'1l'
p474
F0.0001726817475392851
sS'1o'
p475
F0.0
sS'1n'
p476
F0.0001726817475392851
sS'x-'
p477
F0.0
sS'x8'
p478
F0.0
sS'x9'
p479
F0.0
sS'x2'
p480
F0.0
sS'x3'
p481
F0.0
sS'x0'
p482
F0.0
sS'x1'
p483
F0.0
sS'x6'
p484
F0.0
sS'x7'
p485
F0.0
sS'x4'
p486
F0.0
sS'x5'
p487
F0.0
sS'11'
p488
F0.0012087722327749958
sS'10'
p489
F0.0005180452426178553
sS'13'
p490
F0.0003453634950785702
sS'12'
p491
F0.0013814539803142809
sS'15'
p492
F0.0001726817475392851
sS'14'
p493
F0.0006907269901571404
sS'17'
p494
F0.0003453634950785702
sS'16'
p495
F0.0005180452426178553
sS'19'
p496
F0.0003453634950785702
sS'18'
p497
F0.0008634087376964255
sS'1-'
p498
F0.0
sS'j8'
p499
F0.0
sS'j9'
p500
F0.0
sS'j4'
p501
F0.0
sS'j5'
p502
F0.0
sS'j6'
p503
F0.0
sS'j7'
p504
F0.0
sS'j0'
p505
F0.0
sS'j1'
p506
F0.0
sS'j2'
p507
F0.0
sS'j3'
p508
F0.0
sS'j-'
p509
F0.0001726817475392851
sS'jx'
p510
F0.0001726817475392851
sS'jy'
p511
F0.0
sS'jz'
p512
F0.0
sS'jt'
p513
F0.0
sS'ju'
p514
F0.0012087722327749958
sS'jv'
p515
F0.0
sS'jw'
p516
F0.0
sS'jp'
p517
F0.0
sS'jq'
p518
F0.0
sS'jr'
p519
F0.0
sS'js'
p520
F0.0001726817475392851
sS'jl'
p521
F0.0
sS'jm'
p522
F0.0
sS'jn'
p523
F0.0
sS'jo'
p524
F0.0008634087376964255
sS'jh'
p525
F0.0
sS'ji'
p526
F0.0012087722327749958
sS'jj'
p527
F0.0
sS'jk'
p528
F0.0
sS'jd'
p529
F0.0
sS'je'
p530
F0.0003453634950785702
sS'jf'
p531
F0.0
sS'jg'
p532
F0.0
sS'ja'
p533
F0.0010360904852357107
sS'jb'
p534
F0.0
sS'jc'
p535
F0.0001726817475392851
sS'6-'
p536
F0.0
sS'60'
p537
F0.0006907269901571404
sS'61'
p538
F0.0
sS'62'
p539
F0.0
sS'63'
p540
F0.0001726817475392851
sS'64'
p541
F0.0
sS'65'
p542
F0.0001726817475392851
sS'66'
p543
F0.0003453634950785702
sS'67'
p544
F0.0003453634950785702
sS'68'
p545
F0.0003453634950785702
sS'69'
p546
F0.0
sS'6a'
p547
F0.0
sS'6b'
p548
F0.0
sS'6c'
p549
F0.0
sS'6d'
p550
F0.0001726817475392851
sS'6e'
p551
F0.0
sS'6f'
p552
F0.0
sS'6g'
p553
F0.0
sS'6h'
p554
F0.0
sS'6i'
p555
F0.0
sS'6j'
p556
F0.0
sS'6k'
p557
F0.0
sS'6l'
p558
F0.0
sS'6m'
p559
F0.0
sS'6n'
p560
F0.0
sS'6o'
p561
F0.0
sS'6p'
p562
F0.0001726817475392851
sS'6q'
p563
F0.0
sS'6r'
p564
F0.0
sS'6s'
p565
F0.0
sS'6t'
p566
F0.0
sS'6u'
p567
F0.0
sS'6v'
p568
F0.0
sS'6w'
p569
F0.0
sS'6x'
p570
F0.0
sS'6y'
p571
F0.0
sS'6z'
p572
F0.0
sS'o-'
p573
F0.0003453634950785702
sS'o9'
p574
F0.0
sS'o8'
p575
F0.0
sS'o7'
p576
F0.0001726817475392851
sS'o6'
p577
F0.0
sS'o5'
p578
F0.0
sS'o4'
p579
F0.0
sS'o3'
p580
F0.0
sS'o2'
p581
F0.0
sS'o1'
p582
F0.0005180452426178553
sS'o0'
p583
F0.0
sS'oo'
p584
F0.006043861163874979
sS'on'
p585
F0.012778449317907097
sS'om'
p586
F0.003453634950785702
sS'ol'
p587
F0.002935589708167847
sS'ok'
p588
F0.002935589708167847
sS'oj'
p589
F0.0001726817475392851
sS'oi'
p590
F0.001554135727853566
sS'oh'
p591
F0.0013814539803142809
sS'og'
p592
F0.003971680193403557
sS'of'
p593
F0.001899499222932136
sS'oe'
p594
F0.0
sS'od'
p595
F0.0013814539803142809
sS'oc'
p596
F0.004317043688482128
sS'ob'
p597
F0.003280953203246417
sS'oa'
p598
F0.0024175444655499916
sS'oz'
p599
F0.0006907269901571404
sS'oy'
p600
F0.0008634087376964255
sS'ox'
p601
F0.0012087722327749958
sS'ow'
p602
F0.003798998445864272
sS'ov'
p603
F0.001899499222932136
sS'ou'
p604
F0.005698497668796408
sS'ot'
p605
F0.004144361940942843
sS'os'
p606
F0.003453634950785702
sS'or'
p607
F0.00846140562942497
sS'oq'
p608
F0.0
sS'op'
p609
F0.0036263166983249873
sS'aa'
p610
F0.0005180452426178553
sS'ac'
p611
F0.0036263166983249873
sS'ab'
p612
F0.0025902262130892764
sS'ae'
p613
F0.0001726817475392851
sS'ad'
p614
F0.005698497668796408
sS'ag'
p615
F0.0024175444655499916
sS'af'
p616
F0.0010360904852357107
sS'ai'
p617
F0.005180452426178553
sS'ah'
p618
F0.001554135727853566
sS'ak'
p619
F0.001899499222932136
sS'aj'
p620
F0.0
sS'am'
p621
F0.007597996891728544
sS'al'
p622
F0.0074253151441892595
sS'ao'
p623
F0.002935589708167847
sS'an'
p624
F0.012778449317907097
sS'aq'
p625
F0.0001726817475392851
sS'ap'
p626
F0.003453634950785702
sS'as'
p627
F0.006907269901571404
sS'ar'
p628
F0.010533586599896392
sS'au'
p629
F0.0025902262130892764
sS'at'
p630
F0.005698497668796408
sS'aw'
p631
F0.0005180452426178553
sS'av'
p632
F0.0022448627180107063
sS'ay'
p633
F0.003108271455707132
sS'ax'
p634
F0.0001726817475392851
sS'az'
p635
F0.001726817475392851
sS'a-'
p636
F0.0
sS'a1'
p637
F0.0
sS'a0'
p638
F0.0
sS'a3'
p639
F0.0
sS'a2'
p640
F0.0
sS'a5'
p641
F0.0
sS'a4'
p642
F0.0
sS'a7'
p643
F0.0
sS'a6'
p644
F0.0001726817475392851
sS'a9'
p645
F0.0
sS'a8'
p646
F0.0
sS'-e'
p647
F0.0001726817475392851
sS'-d'
p648
F0.0
sS'-g'
p649
F0.0001726817475392851
sS'-f'
p650
F0.0
sS'-a'
p651
F0.0003453634950785702
sS'-c'
p652
F0.0003453634950785702
sS'-b'
p653
F0.0003453634950785702
sS'-m'
p654
F0.0003453634950785702
sS'-l'
p655
F0.0001726817475392851
sS'-o'
p656
F0.0001726817475392851
sS'-n'
p657
F0.0003453634950785702
sS'-i'
p658
F0.0001726817475392851
sS'-h'
p659
F0.0
sS'-k'
p660
F0.0001726817475392851
sS'-j'
p661
F0.0
sS'-u'
p662
F0.0
sS'-t'
p663
F0.0
sS'-w'
p664
F0.0003453634950785702
sS'-v'
p665
F0.0
sS'-q'
p666
F0.0
sS'-p'
p667
F0.0003453634950785702
sS'-s'
p668
F0.0
sS'-r'
p669
F0.0
sS'tf'
p670
F0.0010360904852357107
sS'tg'
p671
F0.0006907269901571404
sS'td'
p672
F0.0003453634950785702
sS'te'
p673
F0.009497496114660681
sS'-y'
p674
F0.0
sS'-x'
p675
F0.0
sS'-z'
p676
F0.0
sS't8'
p677
F0.0
sS't9'
p678
F0.0
sS't6'
p679
F0.0
sS't7'
p680
F0.0
sS't4'
p681
F0.0
sS't5'
p682
F0.0
sS't2'
p683
F0.0003453634950785702
sS't3'
p684
F0.0
sS't0'
p685
F0.0
sS't1'
p686
F0.0003453634950785702
sS'-5'
p687
F0.0
sS'-4'
p688
F0.0
sS'-7'
p689
F0.0
sS'-6'
p690
F0.0
sS'-1'
p691
F0.0
sS'-0'
p692
F0.0
sS'-3'
p693
F0.0
sS'-2'
p694
F0.0
sS'-9'
p695
F0.0
sS'-8'
p696
F0.0
sS'f0'
p697
F0.0
sS'f1'
p698
F0.0001726817475392851
sS'f2'
p699
F0.0
sS'f3'
p700
F0.0
sS'f4'
p701
F0.0
sS'f5'
p702
F0.0
sS'f6'
p703
F0.0
sS'f7'
p704
F0.0
sS'f8'
p705
F0.0
sS'f9'
p706
F0.0
sS'f-'
p707
F0.0
sS'fp'
p708
F0.0
sS'fq'
p709
F0.0
sS'fr'
p710
F0.0027629079606285617
sS'fs'
p711
F0.0
sS'ft'
p712
F0.001726817475392851
sS'fu'
p713
F0.0003453634950785702
sS'fv'
p714
F0.0
sS'fw'
p715
F0.0001726817475392851
sS'fx'
p716
F0.0001726817475392851
sS'fy'
p717
F0.0
sS'fz'
p718
F0.0
sS'fa'
p719
F0.0012087722327749958
sS'fb'
p720
F0.0
sS'fc'
p721
F0.0005180452426178553
sS'fd'
p722
F0.0
sS'fe'
p723
F0.001726817475392851
sS'ff'
p724
F0.0006907269901571404
sS'fg'
p725
F0.0001726817475392851
sS'fh'
p726
F0.0
sS'fi'
p727
F0.0027629079606285617
sS'fj'
p728
F0.0
sS'fk'
p729
F0.0001726817475392851
sS'fl'
p730
F0.0006907269901571404
sS'fm'
p731
F0.0
sS'fn'
p732
F0.0
sS'fo'
p733
F0.0027629079606285617
sS'y-'
p734
F0.0
sS'y9'
p735
F0.0
sS'y8'
p736
F0.0
sS'y1'
p737
F0.0001726817475392851
sS'y0'
p738
F0.0
sS'y3'
p739
F0.0
sS'y2'
p740
F0.0001726817475392851
sS'y5'
p741
F0.0
sS'y4'
p742
F0.0
sS'y7'
p743
F0.0
sS'y6'
p744
F0.0
sS'24'
p745
F0.0006907269901571404
sS'25'
p746
F0.0
sS'26'
p747
F0.0003453634950785702
sS'27'
p748
F0.0
sS'20'
p749
F0.0005180452426178553
sS'21'
p750
F0.0003453634950785702
sS'22'
p751
F0.0001726817475392851
sS'23'
p752
F0.0012087722327749958
sS'28'
p753
F0.0001726817475392851
sS'29'
p754
F0.0
sS'2-'
p755
F0.0
sS'yi'
p756
F0.0006907269901571404
sS'yh'
p757
F0.0
sS'yk'
p758
F0.0
sS'yj'
p759
F0.0001726817475392851
sS'ym'
p760
F0.0008634087376964255
sS'yl'
p761
F0.0008634087376964255
sS'yo'
p762
F0.001899499222932136
sS'yn'
p763
F0.0006907269901571404
sS'ya'
p764
F0.0025902262130892764
sS'yc'
p765
F0.0012087722327749958
sS'yb'
p766
F0.0
sS'ye'
p767
F0.0013814539803142809
sS'yd'
p768
F0.0005180452426178553
sS'yg'
p769
F0.0001726817475392851
sS'yf'
p770
F0.0005180452426178553
sS'yy'
p771
F0.0001726817475392851
sS'yx'
p772
F0.0001726817475392851
sS'yz'
p773
F0.0001726817475392851
sS'yq'
p774
F0.0
sS'yp'
p775
F0.0012087722327749958
sS'ys'
p776
F0.0006907269901571404
sS'yr'
p777
F0.0003453634950785702
sS'yu'
p778
F0.0005180452426178553
sS'yt'
p779
F0.0003453634950785702
sS'yw'
p780
F0.0003453634950785702
sS'yv'
p781
F0.0003453634950785702
sS'2t'
p782
F0.0
sS'2u'
p783
F0.0
sS'2v'
p784
F0.0
sS'2w'
p785
F0.0001726817475392851
sS'2p'
p786
F0.0001726817475392851
sS'2q'
p787
F0.0
sS'2r'
p788
F0.0
sS'2s'
p789
F0.0
sS'2x'
p790
F0.0
sS'2y'
p791
F0.0001726817475392851
sS'2z'
p792
F0.0
sS'2d'
p793
F0.0
sS'2e'
p794
F0.0
sS'2f'
p795
F0.0
sS'2g'
p796
F0.0
sS'2a'
p797
F0.0
sS'2b'
p798
F0.0
sS'2c'
p799
F0.0001726817475392851
sS'2l'
p800
F0.0
sS'2m'
p801
F0.0
sS'2n'
p802
F0.0
sS'2o'
p803
F0.0
sS'2h'
p804
F0.0
sS'2i'
p805
F0.0
sS'2j'
p806
F0.0
sS'2k'
p807
F0.0
sS'7g'
p808
F0.0
sS'7f'
p809
F0.0
sS'7e'
p810
F0.0
sS'7d'
p811
F0.0
sS'7c'
p812
F0.0001726817475392851
sS'7b'
p813
F0.0
sS'7a'
p814
F0.0
sS'7o'
p815
F0.0
sS'7n'
p816
F0.0001726817475392851
sS'7m'
p817
F0.0
sS'7l'
p818
F0.0
sS'7k'
p819
F0.0003453634950785702
sS'7j'
p820
F0.0
sS'7i'
p821
F0.0
sS'7h'
p822
F0.0
sS'7w'
p823
F0.0
sS'7v'
p824
F0.0
sS'7u'
p825
F0.0
sS'7t'
p826
F0.0
sS'7s'
p827
F0.0
sS'7r'
p828
F0.0
sS'7q'
p829
F0.0
sS'7p'
p830
F0.0
sS'7z'
p831
F0.0
sS'7y'
p832
F0.0
sS'7x'
p833
F0.0
sS'k-'
p834
F0.0
sS'k3'
p835
F0.0
sS'k2'
p836
F0.0
sS'k1'
p837
F0.0
sS'k0'
p838
F0.0
sS'k7'
p839
F0.0001726817475392851
sS'k6'
p840
F0.0
sS'k5'
p841
F0.0
sS'k4'
p842
F0.0
sS'k9'
p843
F0.0
sS'k8'
p844
F0.0
sS'7-'
p845
F0.0
sS'77'
p846
F0.0
sS'76'
p847
F0.0001726817475392851
sS'75'
p848
F0.0
sS'74'
p849
F0.0
sS'73'
p850
F0.0001726817475392851
sS'72'
p851
F0.0001726817475392851
sS'71'
p852
F0.0001726817475392851
sS'70'
p853
F0.0
sS'79'
p854
F0.0
sS'78'
p855
F0.0
sS'kc'
p856
F0.0
sS'kb'
p857
F0.0005180452426178553
sS'ka'
p858
F0.0025902262130892764
sS'kg'
p859
F0.0
sS'kf'
p860
F0.0
sS'ke'
p861
F0.003453634950785702
sS'kd'
p862
F0.0
sS'kk'
p863
F0.0006907269901571404
sS'kj'
p864
F0.0
sS'ki'
p865
F0.0027629079606285617
sS'kh'
p866
F0.0001726817475392851
sS'ko'
p867
F0.001899499222932136
sS'kn'
p868
F0.0
sS'km'
p869
F0.0
sS'kl'
p870
F0.0003453634950785702
sS'ks'
p871
F0.0006907269901571404
sS'kr'
p872
F0.0001726817475392851
sS'kq'
p873
F0.0
sS'kp'
p874
F0.0001726817475392851
sS'kw'
p875
F0.0001726817475392851
sS'kv'
p876
F0.0
sS'ku'
p877
F0.003108271455707132
sS'kt'
p878
F0.0006907269901571404
sS'kz'
p879
F0.0
sS'ky'
p880
F0.0013814539803142809
sS'kx'
p881
F0.0
sS'pr'
p882
F0.0027629079606285617
sS'ps'
p883
F0.0008634087376964255
sS'pp'
p884
F0.0013814539803142809
sS'pq'
p885
F0.0001726817475392851
sS'pv'
p886
F0.0
sS'pw'
p887
F0.0
sS'pt'
p888
F0.0005180452426178553
sS'pu'
p889
F0.0005180452426178553
sS'pz'
p890
F0.0
sS'px'
p891
F0.0
sS'py'
p892
F0.0
sS'pb'
p893
F0.0001726817475392851
sS'pc'
p894
F0.001554135727853566
sS'pa'
p895
F0.006561906406492834
sS'pf'
p896
F0.0
sS'pg'
p897
F0.0
sS'pd'
p898
F0.0001726817475392851
sS'pe'
p899
F0.003798998445864272
sS'pj'
p900
F0.0
sS'pk'
p901
F0.0003453634950785702
sS'ph'
p902
F0.0005180452426178553
sS'pi'
p903
F0.003108271455707132
sS'pn'
p904
F0.0001726817475392851
sS'po'
p905
F0.006907269901571404
sS'pl'
p906
F0.003280953203246417
sS'pm'
p907
F0.0
sS'p2'
p908
F0.0
sS'p3'
p909
F0.0003453634950785702
sS'p0'
p910
F0.0
sS'p1'
p911
F0.0001726817475392851
sS'p6'
p912
F0.0
sS'p7'
p913
F0.0
sS'p4'
p914
F0.0
sS'p5'
p915
F0.0
sS'p8'
p916
F0.0
sS'p9'
p917
F0.0
sS'p-'
p918
F0.0003453634950785702
sS'b-'
p919
F0.0
sS'b4'
p920
F0.0
sS'b5'
p921
F0.0
sS'b6'
p922
F0.0
sS'b7'
p923
F0.0
sS'b0'
p924
F0.0
sS'b1'
p925
F0.0
sS'b2'
p926
F0.0
sS'b3'
p927
F0.0
sS'b8'
p928
F0.0
sS'b9'
p929
F0.0
sS'bd'
p930
F0.0003453634950785702
sS'be'
p931
F0.0025902262130892764
sS'bf'
p932
F0.0
sS'bg'
p933
F0.0001726817475392851
sS'ba'
p934
F0.0074253151441892595
sS'bb'
p935
F0.0003453634950785702
sS'bc'
p936
F0.0010360904852357107
sS'bl'
p937
F0.0036263166983249873
sS'bm'
p938
F0.0005180452426178553
sS'bn'
p939
F0.0
sS'bo'
p940
F0.0027629079606285617
sS'bh'
p941
F0.0
sS'bi'
p942
F0.004144361940942843
sS'bj'
p943
F0.0
sS'bk'
p944
F0.0
sS'bt'
p945
F0.0003453634950785702
sS'bu'
p946
F0.0020721809704714214
sS'bv'
p947
F0.0
sS'bw'
p948
F0.0
sS'bp'
p949
F0.0005180452426178553
sS'bq'
p950
F0.0
sS'br'
p951
F0.0013814539803142809
sS'bs'
p952
F0.001899499222932136
sS'bx'
p953
F0.0
sS'by'
p954
F0.0005180452426178553
sS'bz'
p955
F0.0
sS'u9'
p956
F0.0001726817475392851
sS'u8'
p957
F0.0
sS'u5'
p958
F0.0
sS'u4'
p959
F0.0
sS'u7'
p960
F0.0
sS'u6'
p961
F0.0001726817475392851
sS'u1'
p962
F0.0
sS'u0'
p963
F0.0
sS'u3'
p964
F0.0
sS'u2'
p965
F0.0
sS'u-'
p966
F0.0
sS'uy'
p967
F0.0003453634950785702
sS'ux'
p968
F0.0001726817475392851
sS'uz'
p969
F0.0003453634950785702
sS'uu'
p970
F0.0006907269901571404
sS'ut'
p971
F0.004835088931099983
sS'uw'
p972
F0.0003453634950785702
sS'uv'
p973
F0.0
sS'uq'
p974
F0.0
sS'up'
p975
F0.0024175444655499916
sS'us'
p976
F0.003280953203246417
sS'ur'
p977
F0.002935589708167847
sS'um'
p978
F0.0008634087376964255
sS'ul'
p979
F0.0010360904852357107
sS'uo'
p980
F0.0008634087376964255
sS'un'
p981
F0.005007770678639268
sS'ui'
p982
F0.001726817475392851
sS'uh'
p983
F0.0001726817475392851
sS'uk'
p984
F0.0003453634950785702
sS'uj'
p985
F0.0
sS'ue'
p986
F0.001554135727853566
sS'ud'
p987
F0.0008634087376964255
sS'ug'
p988
F0.0008634087376964255
sS'uf'
p989
F0.0008634087376964255
sS'ua'
p990
F0.0013814539803142809
sS'uc'
p991
F0.0010360904852357107
sS'ub'
p992
F0.0013814539803142809
sS'gw'
p993
F0.0
sS'gv'
p994
F0.0
sS'gu'
p995
F0.0006907269901571404
sS'gt'
p996
F0.0003453634950785702
sS'gs'
p997
F0.0012087722327749958
sS'gr'
p998
F0.0025902262130892764
sS'gq'
p999
F0.0
sS'gp'
p1000
F0.0001726817475392851
sS'gz'
p1001
F0.0
sS'gy'
p1002
F0.0005180452426178553
sS'gx'
p1003
F0.0001726817475392851
sS'gg'
p1004
F0.0008634087376964255
sS'gf'
p1005
F0.0001726817475392851
sS'ge'
p1006
F0.004144361940942843
sS'gd'
p1007
F0.0006907269901571404
sS'gc'
p1008
F0.0003453634950785702
sS'gb'
p1009
F0.0001726817475392851
sS'ga'
p1010
F0.005353134173717839
sS'go'
p1011
F0.0036263166983249873
sS'gn'
p1012
F0.0003453634950785702
sS'gm'
p1013
F0.0010360904852357107
sS'gl'
p1014
F0.0010360904852357107
sS'gk'
p1015
F0.0001726817475392851
sS'gj'
p1016
F0.0
sS'gi'
p1017
F0.0013814539803142809
sS'gh'
p1018
F0.0001726817475392851
sS'g7'
p1019
F0.0
sS'g6'
p1020
F0.0
sS'g5'
p1021
F0.0
sS'g4'
p1022
F0.0
sS'g3'
p1023
F0.0
sS'g2'
p1024
F0.0001726817475392851
sS'g1'
p1025
F0.0
sS'g0'
p1026
F0.0
sS'g9'
p1027
F0.0
sS'g8'
p1028
F0.0
sS'g-'
p1029
F0.0001726817475392851
sS'zl'
p1030
F0.0003453634950785702
sS'zm'
p1031
F0.0001726817475392851
sS'zn'
p1032
F0.0005180452426178553
sS'zo'
p1033
F0.0022448627180107063
sS'zh'
p1034
F0.0005180452426178553
sS'zi'
p1035
F0.0013814539803142809
sS'zj'
p1036
F0.0
sS'zk'
p1037
F0.0
sS'zd'
p1038
F0.0
sS'ze'
p1039
F0.0010360904852357107
sS'zf'
p1040
F0.0
sS'zg'
p1041
F0.0001726817475392851
sS'za'
p1042
F0.0008634087376964255
sS'zb'
p1043
F0.0
sS'zc'
p1044
F0.0
sS'zx'
p1045
F0.0
sS'zy'
p1046
F0.0003453634950785702
sS'zz'
p1047
F0.0003453634950785702
sS'zt'
p1048
F0.0001726817475392851
sS'zu'
p1049
F0.0005180452426178553
sS'zv'
p1050
F0.0
sS'zw'
p1051
F0.0001726817475392851
sS'zp'
p1052
F0.0
sS'zq'
p1053
F0.0001726817475392851
sS'zr'
p1054
F0.0001726817475392851
sS'zs'
p1055
F0.0001726817475392851
sS'3z'
p1056
F0.0
sS'3y'
p1057
F0.0
sS'3x'
p1058
F0.0
sS'3s'
p1059
F0.0
sS'3r'
p1060
F0.0003453634950785702
sS'3q'
p1061
F0.0
sS'3p'
p1062
F0.0001726817475392851
sS'3w'
p1063
F0.0
sS'3v'
p1064
F0.0
sS'3u'
p1065
F0.0
sS'3t'
p1066
F0.0
sS'3k'
p1067
F0.0
sS'3j'
p1068
F0.0
sS'3i'
p1069
F0.0
sS'3h'
p1070
F0.0
sS'3o'
p1071
F0.0
sS'3n'
p1072
F0.0
sS'3m'
p1073
F0.0
sS'3l'
p1074
F0.0
sS'3c'
p1075
F0.0
sS'3b'
p1076
F0.0
sS'3a'
p1077
F0.0
sS'3g'
p1078
F0.0001726817475392851
sS'3f'
p1079
F0.0
sS'3e'
p1080
F0.0
sS'3d'
p1081
F0.0
sS'z-'
p1082
F0.0
sS'z8'
p1083
F0.0
sS'z9'
p1084
F0.0
sS'z4'
p1085
F0.0
sS'z5'
p1086
F0.0
sS'z6'
p1087
F0.0
sS'z7'
p1088
F0.0
sS'z0'
p1089
F0.0
sS'z1'
p1090
F0.0
sS'z2'
p1091
F0.0
sS'z3'
p1092
F0.0
sS'39'
p1093
F0.0003453634950785702
sS'38'
p1094
F0.0003453634950785702
sS'33'
p1095
F0.0001726817475392851
sS'32'
p1096
F0.0
sS'31'
p1097
F0.0
sS'30'
p1098
F0.0001726817475392851
sS'37'
p1099
F0.0
sS'36'
p1100
F0.0010360904852357107
sS'35'
p1101
F0.0001726817475392851
sS'34'
p1102
F0.0001726817475392851
sS'3-'
p1103
F0.0
sS'lf'
p1104
F0.0001726817475392851
sS'lg'
p1105
F0.0001726817475392851
sS'ld'
p1106
F0.0013814539803142809
sS'le'
p1107
F0.00846140562942497
sS'lb'
p1108
F0.0003453634950785702
sS'lc'
p1109
F0.0
sS'la'
p1110
F0.003798998445864272
sS'ln'
p1111
F0.0001726817475392851
sS'lo'
p1112
F0.00846140562942497
sS'll'
p1113
F0.002935589708167847
sS'lm'
p1114
F0.0006907269901571404
sS'lj'
p1115
F0.0001726817475392851
sS'lk'
p1116
F0.0
sS'lh'
p1117
F0.0
sS'li'
p1118
F0.00846140562942497
sS'lv'
p1119
F0.0001726817475392851
sS'lw'
p1120
F0.0
sS'lt'
p1121
F0.0012087722327749958
sS'lu'
p1122
F0.0006907269901571404
sS'lr'
p1123
F0.0003453634950785702
sS'ls'
p1124
F0.0008634087376964255
sS'lp'
p1125
F0.0008634087376964255
sS'lq'
p1126
F0.0
sS'tu'
p1127
F0.0022448627180107063
sS'lz'
p1128
F0.0001726817475392851
sS'lx'
p1129
F0.0
sS'ly'
p1130
F0.001726817475392851
sS'l-'
p1131
F0.0003453634950785702
sS'l6'
p1132
F0.0
sS'l7'
p1133
F0.0
sS'l4'
p1134
F0.0
sS'l5'
p1135
F0.0
sS'l2'
p1136
F0.0
sS'l3'
p1137
F0.0
sS'l0'
p1138
F0.0
sS'l1'
p1139
F0.0
sS'l8'
p1140
F0.0
sS'l9'
p1141
F0.0
sS'8-'
p1142
F0.0
sS'88'
p1143
F0.0003453634950785702
sS'89'
p1144
F0.0
sS'82'
p1145
F0.0
sS'83'
p1146
F0.0001726817475392851
sS'80'
p1147
F0.0001726817475392851
sS'81'
p1148
F0.0003453634950785702
sS'86'
p1149
F0.0001726817475392851
sS'87'
p1150
F0.0
sS'84'
p1151
F0.0
sS'85'
p1152
F0.0
sS'8j'
p1153
F0.0
sS'8k'
p1154
F0.0
sS'8h'
p1155
F0.0
sS'8i'
p1156
F0.0
sS'8n'
p1157
F0.0
sS'8o'
p1158
F0.0
sS'8l'
p1159
F0.0
sS'8m'
p1160
F0.0
sS'8b'
p1161
F0.0
sS'8c'
p1162
F0.0
sS'8a'
p1163
F0.0
sS'8f'
p1164
F0.0
sS'8g'
p1165
F0.0001726817475392851
sS'8d'
p1166
F0.0
sS'8e'
p1167
F0.0
sS'8z'
p1168
F0.0
sS'8x'
p1169
F0.0
sS'8y'
p1170
F0.0
sS'8r'
p1171
F0.0
sS'8s'
p1172
F0.0
sS'8p'
p1173
F0.0
sS'8q'
p1174
F0.0
sS'8v'
p1175
F0.0
sS'8w'
p1176
F0.0
sS'8t'
p1177
F0.0
sS'8u'
p1178
F0.0
sS'ts'
p1179
F0.0013814539803142809
sS'q1'
p1180
F0.0
sS'q0'
p1181
F0.0
sS'q3'
p1182
F0.0
sS'q2'
p1183
F0.0
sS'q5'
p1184
F0.0
sS'q4'
p1185
F0.0
sS'q7'
p1186
F0.0
sS'q6'
p1187
F0.0
sS'q9'
p1188
F0.0
sS'q8'
p1189
F0.0
sS'q-'
p1190
F0.0
sS'qq'
p1191
F0.0005180452426178553
sS'qp'
p1192
F0.0
sS'qs'
p1193
F0.0
sS'qr'
p1194
F0.0
sS'qu'
p1195
F0.0008634087376964255
sS'qt'
p1196
F0.0001726817475392851
sS'qw'
p1197
F0.0001726817475392851
sS'qv'
p1198
F0.0
sS'qy'
p1199
F0.0
sS'qx'
p1200
F0.0
sS'qz'
p1201
F0.0001726817475392851
sS'qa'
p1202
F0.0
sS'qc'
p1203
F0.0
sS'qb'
p1204
F0.0
sS'qe'
p1205
F0.0
sS'qd'
p1206
F0.0
sS'qg'
p1207
F0.0005180452426178553
sS'qf'
p1208
F0.0
sS'qi'
p1209
F0.0012087722327749958
sS'qh'
p1210
F0.0
sS'qk'
p1211
F0.0
sS'qj'
p1212
F0.0
sS'qm'
p1213
F0.0001726817475392851
sS'ql'
p1214
F0.0
sS'qo'
p1215
F0.0
sS'qn'
p1216
F0.0
sS'ck'
p1217
F0.0022448627180107063
sS'cj'
p1218
F0.0
sS'ci'
p1219
F0.0036263166983249873
sS'ch'
p1220
F0.005871179416335694
sS'co'
p1221
F0.006043861163874979
sS'cn'
p1222
F0.001726817475392851
sS'cm'
p1223
F0.0003453634950785702
sS'cl'
p1224
F0.001554135727853566
sS'cc'
p1225
F0.0010360904852357107
sS'cb'
p1226
F0.0010360904852357107
sS'ca'
p1227
F0.005525815921257123
sS'cg'
p1228
F0.0001726817475392851
sS'cf'
p1229
F0.0001726817475392851
sS'ce'
p1230
F0.003280953203246417
sS'cd'
p1231
F0.0003453634950785702
sS'cz'
p1232
F0.0
sS'cy'
p1233
F0.0005180452426178553
sS'cx'
p1234
F0.0
sS'cs'
p1235
F0.0006907269901571404
sS'cr'
p1236
F0.001899499222932136
sS'cq'
p1237
F0.0003453634950785702
sS'cp'
p1238
F0.0003453634950785702
sS'cw'
p1239
F0.0003453634950785702
sS'cv'
p1240
F0.0
sS'cu'
p1241
F0.0010360904852357107
sS'ct'
p1242
F0.0027629079606285617
sS'c-'
p1243
F0.0
sS'c9'
p1244
F0.0
sS'c8'
p1245
F0.0
sS'c3'
p1246
F0.0001726817475392851
sS'c2'
p1247
F0.0003453634950785702
sS'c1'
p1248
F0.0001726817475392851
sS'c0'
p1249
F0.0
sS'c7'
p1250
F0.0
sS'c6'
p1251
F0.0
sS'c5'
p1252
F0.0
sS'c4'
p1253
F0.0
sS'va'
p1254
F0.0010360904852357107
sS'vb'
p1255
F0.0
sS'vc'
p1256
F0.0
sS'vd'
p1257
F0.0
sS've'
p1258
F0.005871179416335694
sS'vf'
p1259
F0.0
sS'vg'
p1260
F0.0001726817475392851
sS'vh'
p1261
F0.0
sS'vi'
p1262
F0.003971680193403557
sS'vj'
p1263
F0.0
sS'vk'
p1264
F0.0001726817475392851
sS'vl'
p1265
F0.0
sS'vm'
p1266
F0.0001726817475392851
sS'vn'
p1267
F0.0003453634950785702
sS'vo'
p1268
F0.0005180452426178553
sS'vp'
p1269
F0.0001726817475392851
sS'vq'
p1270
F0.0
sS'vr'
p1271
F0.0001726817475392851
sS'vs'
p1272
F0.0
sS'vt'
p1273
F0.0
sS'vu'
p1274
F0.0003453634950785702
sS'vv'
p1275
F0.0
sS'vw'
p1276
F0.0
sS'vx'
p1277
F0.0
sS'vy'
p1278
F0.0
sS'vz'
p1279
F0.0003453634950785702
sS'v-'
p1280
F0.0
sS'v0'
p1281
F0.0
sS'v1'
p1282
F0.0
sS'v2'
p1283
F0.0
sS'v3'
p1284
F0.0
sS'v4'
p1285
F0.0
sS'v5'
p1286
F0.0
sS'v6'
p1287
F0.0
sS'v7'
p1288
F0.0
sS'v8'
p1289
F0.0
sS'v9'
p1290
F0.0
sS'tq'
p1291
F0.0
sS'43'
p1292
F0.0001726817475392851
sS'tm'
p1293
F0.0013814539803142809
sS'h8'
p1294
F0.0
sS'h9'
p1295
F0.0
sS'h2'
p1296
F0.0001726817475392851
sS'h3'
p1297
F0.0
sS'h0'
p1298
F0.0
sS'h1'
p1299
F0.0
sS'h6'
p1300
F0.0
sS'h7'
p1301
F0.0
sS'h4'
p1302
F0.0
sS'h5'
p1303
F0.0
sS'h-'
p1304
F0.0
sS'hz'
p1305
F0.0
sS'hx'
p1306
F0.0
sS'hy'
p1307
F0.0001726817475392851
sS'hr'
p1308
F0.0003453634950785702
sS'hs'
p1309
F0.0
sS'hp'
p1310
F0.0
sS'hq'
p1311
F0.0001726817475392851
sS'hv'
p1312
F0.0001726817475392851
sS'hw'
p1313
F0.0003453634950785702
sS'ht'
p1314
F0.0003453634950785702
sS'hu'
p1315
F0.001899499222932136
sS'hj'
p1316
F0.0
sS'hk'
p1317
F0.0001726817475392851
sS'hh'
p1318
F0.0
sS'hi'
p1319
F0.004317043688482128
sS'hn'
p1320
F0.0001726817475392851
sS'ho'
p1321
F0.005007770678639268
sS'hl'
p1322
F0.0001726817475392851
sS'hm'
p1323
F0.0
sS'hb'
p1324
F0.0
sS'hc'
p1325
F0.0003453634950785702
sS'ha'
p1326
F0.004662407183560698
sS'hf'
p1327
F0.0
sS'hg'
p1328
F0.0001726817475392851
sS'hd'
p1329
F0.0001726817475392851
sS'he'
p1330
F0.004144361940942843
sS'tb'
p1331
F0.0008634087376964255
sS'48'
p1332
F0.0
sS'49'
p1333
F0.0
sS'46'
p1334
F0.0
sS'47'
p1335
F0.0001726817475392851
sS'44'
p1336
F0.0001726817475392851
sS'45'
p1337
F0.0001726817475392851
sS'42'
p1338
F0.0
sS'tc'
p1339
F0.001554135727853566
sS'40'
p1340
F0.0
sS'41'
p1341
F0.0
sS'4-'
p1342
F0.0
sS'4z'
p1343
F0.0
sS'4x'
p1344
F0.0
sS'4y'
p1345
F0.0
sS'4v'
p1346
F0.0
sS'4w'
p1347
F0.0
sS'4t'
p1348
F0.0
sS'4u'
p1349
F0.0
sS'4r'
p1350
F0.0
sS'4s'
p1351
F0.0001726817475392851
sS'4p'
p1352
F0.0
sS'4q'
p1353
F0.0
sS'4n'
p1354
F0.0
sS'4o'
p1355
F0.0
sS'4l'
p1356
F0.0001726817475392851
sS'4m'
p1357
F0.0
sS'4j'
p1358
F0.0
sS'4k'
p1359
F0.0
sS'4h'
p1360
F0.0001726817475392851
sS'4i'
p1361
F0.0
sS'4f'
p1362
F0.0
sS'4g'
p1363
F0.0
sS'4d'
p1364
F0.0
sS'4e'
p1365
F0.0
sS'4b'
p1366
F0.0
sS'4c'
p1367
F0.0
sS'4a'
p1368
F0.0
s.